(iCrypto.PublicKey.ElGamal
ElGamalobj
p1
(dp2
S'y'
L22687528376349881363535976589640181367L
sS'p'
L337498783955583238112110451626069086779L
sS'g'
L104121934608973673996159246974197915024L
sS'x'
L177968947110238961605963976456750217250L
sb.